target datalayout = "e-m:e-p270:32:32-p271:32:32-p272:64:64-i64:64-i128:128-f80:128-n8:16:32:64-S128"
target triple = "x86_64-pc-linux-gnu"

@.str.1768 = private unnamed_addr constant [7 x i8] c"%s, %s\00", align 1
@.str.1769 = private unnamed_addr constant [6 x i8] c" (%d)\00", align 1

; Function Attrs: nounwind uwtable
define internal void @shell_check_oom(ptr noundef %0) #0 {
  %2 = alloca ptr, align 8
  store ptr %0, ptr %2, align 8, !tbaa !53
  %3 = load ptr, ptr %2, align 8, !tbaa !53
  %4 = icmp eq ptr %3, null
  br i1 %4, label %5, label %6

5:                                                ; preds = %1
  call void @shell_out_of_memory()
  br label %6

6:                                                ; preds = %5, %1
  ret void
}

; Function Attrs: nounwind uwtable
define internal ptr @save_err_msg(ptr noundef %0, ptr noundef %1, i32 noundef %2, ptr noundef %3) #0 {
  %5 = alloca ptr, align 8
  %6 = alloca ptr, align 8
  %7 = alloca i32, align 4
  %8 = alloca ptr, align 8
  %9 = alloca ptr, align 8
  %10 = alloca ptr, align 8
  %11 = alloca ptr, align 8
  store ptr %0, ptr %5, align 8, !tbaa !19
  store ptr %1, ptr %6, align 8, !tbaa !36
  store i32 %2, ptr %7, align 4, !tbaa !3
  store ptr %3, ptr %8, align 8, !tbaa !36
  call void @llvm.lifetime.start.p0(i64 8, ptr %9) #14
  call void @llvm.lifetime.start.p0(i64 8, ptr %10) #14
  call void @llvm.lifetime.start.p0(i64 8, ptr %11) #14
  %12 = call ptr @sqlite3_str_new(ptr noundef null)
  store ptr %12, ptr %11, align 8, !tbaa !1277
  %13 = load ptr, ptr %11, align 8, !tbaa !1277
  %14 = load ptr, ptr %6, align 8, !tbaa !36
  %15 = load ptr, ptr %5, align 8, !tbaa !19
  %16 = call ptr @sqlite3_errmsg(ptr noundef %15)
  call void (ptr, ptr, ...) @sqlite3_str_appendf(ptr noundef %13, ptr noundef @.str.1768, ptr noundef %14, ptr noundef %16)
  %17 = load i32, ptr %7, align 4, !tbaa !3
  %18 = icmp sgt i32 %17, 1
  br i1 %18, label %19, label %22

19:                                               ; preds = %4
  %20 = load ptr, ptr %11, align 8, !tbaa !1277
  %21 = load i32, ptr %7, align 4, !tbaa !3
  call void (ptr, ptr, ...) @sqlite3_str_appendf(ptr noundef %20, ptr noundef @.str.1769, i32 noundef %21)
  br label %22

22:                                               ; preds = %19, %4
  %23 = load ptr, ptr %8, align 8, !tbaa !36
  %24 = load ptr, ptr %5, align 8, !tbaa !19
  %25 = call ptr @shell_error_context(ptr noundef %23, ptr noundef %24)
  store ptr %25, ptr %10, align 8, !tbaa !36
  %26 = load ptr, ptr %10, align 8, !tbaa !36
  %27 = icmp ne ptr %26, null
  br i1 %27, label %28, label %32

28:                                               ; preds = %22
  %29 = load ptr, ptr %11, align 8, !tbaa !1277
  %30 = load ptr, ptr %10, align 8, !tbaa !36
  call void @sqlite3_str_appendall(ptr noundef %29, ptr noundef %30)
  %31 = load ptr, ptr %10, align 8, !tbaa !36
  call void @sqlite3_free(ptr noundef %31)
  br label %32

32:                                               ; preds = %28, %22
  %33 = load ptr, ptr %11, align 8, !tbaa !1277
  %34 = call ptr @sqlite3_str_finish(ptr noundef %33)
  store ptr %34, ptr %9, align 8, !tbaa !36
  %35 = load ptr, ptr %9, align 8, !tbaa !36
  call void @shell_check_oom(ptr noundef %35)
  %36 = load ptr, ptr %9, align 8, !tbaa !36
  call void @llvm.lifetime.end.p0(i64 8, ptr %11) #14
  call void @llvm.lifetime.end.p0(i64 8, ptr %10) #14
  call void @llvm.lifetime.end.p0(i64 8, ptr %9) #14
  ret ptr %36
}