; Function Attrs: nounwind uwtable
define internal fastcc ptr @save_err_msg(ptr noundef %0, ptr noundef %1, i32 noundef range(i32 1, 0) %2, ptr noundef %3) unnamed_addr #2 {
  %5 = tail call ptr @sqlite3_str_new(ptr noundef null) #43
  %6 = tail call ptr @sqlite3_errmsg(ptr noundef %0) #43
  tail call void (ptr, ptr, ...) @sqlite3_str_appendf(ptr noundef %5, ptr noundef nonnull @.str.1768, ptr noundef %1, ptr noundef %6) #43
  %7 = icmp sgt i32 %2, 1
  br i1 %7, label %8, label %9

8:                                                ; preds = %4
  tail call void (ptr, ptr, ...) @sqlite3_str_appendf(ptr noundef %5, ptr noundef nonnull @.str.1769, i32 noundef %2) #43
  br label %9

9:                                                ; preds = %8, %4
  %10 = tail call fastcc ptr @shell_error_context(ptr noundef %3, ptr noundef %0)
  %.not = icmp eq ptr %10, null
  br i1 %.not, label %12, label %11

11:                                               ; preds = %9
  tail call void @sqlite3_str_appendall(ptr noundef %5, ptr noundef nonnull %10) #43
  tail call void @sqlite3_free(ptr noundef nonnull %10) #43
  br label %12

12:                                               ; preds = %11, %9
  %13 = tail call ptr @sqlite3_str_finish(ptr noundef %5) #43
  %14 = icmp eq ptr %13, null
  br i1 %14, label %15, label %shell_check_oom.exit

15:                                               ; preds = %12
  tail call fastcc void @shell_out_of_memory()
  unreachable

shell_check_oom.exit:                             ; preds = %12
  ret ptr %13
}